target datalayout = "e-m:e-p270:32:32-p271:32:32-p272:64:64-i64:64-i128:128-f80:128-n8:16:32:64-S128"
target triple = "x86_64-pc-linux-gnu"

%struct.SignatureAlgorithms = type { ptr, i16, [0 x i8] }

; Function Attrs: nounwind uwtable
define ptr @TLSX_SignatureAlgorithms_New(ptr noundef %0, i16 noundef zeroext %1, ptr noundef %2) #0 {
  %4 = alloca ptr, align 8
  %5 = alloca i16, align 2
  %6 = alloca ptr, align 8
  %7 = alloca ptr, align 8
  store ptr %0, ptr %4, align 8, !tbaa !3
  store i16 %1, ptr %5, align 2, !tbaa !73
  store ptr %2, ptr %6, align 8, !tbaa !54
  call void @llvm.lifetime.start.p0(i64 8, ptr %7) #8
  %8 = load i16, ptr %5, align 2, !tbaa !73
  %9 = zext i16 %8 to i64
  %10 = add i64 16, %9
  %11 = call ptr @wolfSSL_Malloc(i64 noundef %10)
  store ptr %11, ptr %7, align 8, !tbaa !176
  %12 = load ptr, ptr %7, align 8, !tbaa !176
  %13 = icmp ne ptr %12, null
  br i1 %13, label %14, label %25

14:                                               ; preds = %3
  %15 = load ptr, ptr %7, align 8, !tbaa !176
  %16 = load i16, ptr %5, align 2, !tbaa !73
  %17 = zext i16 %16 to i64
  %18 = add i64 16, %17
  call void @llvm.memset.p0.i64(ptr align 8 %15, i8 0, i64 %18, i1 false)
  %19 = load ptr, ptr %4, align 8, !tbaa !3
  %20 = load ptr, ptr %7, align 8, !tbaa !176
  %21 = getelementptr inbounds nuw %struct.SignatureAlgorithms, ptr %20, i32 0, i32 0
  store ptr %19, ptr %21, align 8, !tbaa !3
  %22 = load i16, ptr %5, align 2, !tbaa !73
  %23 = load ptr, ptr %7, align 8, !tbaa !176
  %24 = getelementptr inbounds nuw %struct.SignatureAlgorithms, ptr %23, i32 0, i32 1
  store i16 %22, ptr %24, align 8, !tbaa !73
  br label %25

25:                                               ; preds = %14, %3
  %26 = load ptr, ptr %7, align 8, !tbaa !176
  call void @llvm.lifetime.end.p0(i64 8, ptr %7) #8
  ret ptr %26
}