; Function Attrs: nounwind uwtable
define ptr @TLSX_SignatureAlgorithms_New(ptr noundef %0, i16 noundef zeroext %1, ptr noundef readnone captures(none) %2) local_unnamed_addr #0 {
  %4 = zext i16 %1 to i64
  %5 = add nuw nsw i64 %4, 16
  %6 = tail call ptr @wolfSSL_Malloc(i64 noundef %5) #17
  %.not = icmp eq ptr %6, null
  br i1 %.not, label %9, label %7

7:                                                ; preds = %3
  tail call void @llvm.memset.p0.i64(ptr noundef nonnull align 8 dereferenceable(1) %6, i8 0, i64 %5, i1 false)
  store ptr %0, ptr %6, align 8, !tbaa !147
  %8 = getelementptr inbounds nuw i8, ptr %6, i64 8
  store i16 %1, ptr %8, align 8, !tbaa !64
  br label %9

9:                                                ; preds = %7, %3
  ret ptr %6
}